; Function Attrs: mustprogress nofree norecurse nosync nounwind willreturn memory(argmem: readwrite) uwtable
define internal void @tablet_tool_handle_slider(ptr noundef captures(none) initializes((72, 76)) %0, ptr readnone captures(none) %1, i32 noundef %2) #8 {
  %4 = sitofp i32 %2 to float
  %5 = fdiv float %4, 6.553500e+04
  %6 = getelementptr inbounds nuw i8, ptr %0, i64 72
  store float %5, ptr %6, align 4
  %7 = getelementptr inbounds nuw i8, ptr %0, i64 80
  %8 = load i32, ptr %7, align 8
  %9 = or i32 %8, 32
  store i32 %9, ptr %7, align 8
  ret void
}